target datalayout = "e-m:e-p270:32:32-p271:32:32-p272:64:64-i64:64-i128:128-f80:128-n8:16:32:64-S128"
target triple = "x86_64-pc-linux-gnu"

%"class.clang::api_notes::APINotesManager" = type <{ ptr, i8, [3 x i8], %"class.llvm::VersionTuple", [4 x i8], [2 x ptr], %"class.llvm::DenseMap" }>
%"class.llvm::VersionTuple" = type { i64, i64 }
%"class.llvm::DenseMap" = type <{ ptr, i32, i32, i32, [4 x i8] }>
%"class.clang::LangOptionsBase" = type <{ i64, i64, i64, i64, i64, i64, i64, i64, i64, i64, i64, i64, i64, i64, i64, i64, i64, i64, i64, i64, i64, i64, i64, i64, i64, i16, [2 x i8] }>
%"struct.std::pair" = type { ptr, %"class.llvm::PointerUnion" }
%"class.llvm::PointerUnion" = type { %"class.llvm::pointer_union_detail::PointerUnionMembers" }
%"class.llvm::pointer_union_detail::PointerUnionMembers" = type { %"class.llvm::pointer_union_detail::PointerUnionMembers.93" }
%"class.llvm::pointer_union_detail::PointerUnionMembers.93" = type { %"class.llvm::pointer_union_detail::PointerUnionMembers.94" }
%"class.llvm::pointer_union_detail::PointerUnionMembers.94" = type { %"class.llvm::PointerIntPair.95" }
%"class.llvm::PointerIntPair.95" = type { %"struct.llvm::detail::PunnedPointer.96" }
%"struct.llvm::detail::PunnedPointer.96" = type { [8 x i8] }
%"struct.llvm::detail::DenseMapPair" = type { %"struct.std::pair" }

; Function Attrs: mustprogress nounwind uwtable
define linkonce_odr hidden noundef i32 @_ZNK4llvm8DenseMapIPKN5clang14DirectoryEntryENS_12PointerUnionIJNS1_17DirectoryEntryRefEPNS1_9api_notes14APINotesReaderEEEENS_12DenseMapInfoIS4_vEENS_6detail12DenseMapPairIS4_SA_EEE13getNumBucketsEv(ptr noundef nonnull align 8 dereferenceable(20) %0) #1 comdat align 2 {
  %2 = alloca ptr, align 8
  store ptr %0, ptr %2, align 8
  %3 = load ptr, ptr %2, align 8
  %4 = getelementptr inbounds nuw %"class.llvm::DenseMap", ptr %3, i32 0, i32 3
  %5 = load i32, ptr %4, align 8
  ret i32 %5
}

; Function Attrs: mustprogress nounwind uwtable
define linkonce_odr hidden noundef i32 @_ZNK4llvm12DenseMapBaseINS_8DenseMapIPKN5clang14DirectoryEntryENS_12PointerUnionIJNS2_17DirectoryEntryRefEPNS2_9api_notes14APINotesReaderEEEENS_12DenseMapInfoIS5_vEENS_6detail12DenseMapPairIS5_SB_EEEES5_SB_SD_SG_E13getNumBucketsEv(ptr noundef nonnull align 1 dereferenceable(1) %0) #1 comdat align 2 {
  %2 = alloca ptr, align 8
  store ptr %0, ptr %2, align 8
  %3 = load ptr, ptr %2, align 8
  %4 = call noundef i32 @_ZNK4llvm8DenseMapIPKN5clang14DirectoryEntryENS_12PointerUnionIJNS1_17DirectoryEntryRefEPNS1_9api_notes14APINotesReaderEEEENS_12DenseMapInfoIS4_vEENS_6detail12DenseMapPairIS4_SA_EEE13getNumBucketsEv(ptr noundef nonnull align 8 dereferenceable(20) %3)
  ret i32 %4
}

; Function Attrs: mustprogress nounwind uwtable
define linkonce_odr hidden noundef ptr @_ZNK4llvm8DenseMapIPKN5clang14DirectoryEntryENS_12PointerUnionIJNS1_17DirectoryEntryRefEPNS1_9api_notes14APINotesReaderEEEENS_12DenseMapInfoIS4_vEENS_6detail12DenseMapPairIS4_SA_EEE10getBucketsEv(ptr noundef nonnull align 8 dereferenceable(20) %0) #1 comdat align 2 {
  %2 = alloca ptr, align 8
  store ptr %0, ptr %2, align 8
  %3 = load ptr, ptr %2, align 8
  %4 = getelementptr inbounds nuw %"class.llvm::DenseMap", ptr %3, i32 0, i32 0
  %5 = load ptr, ptr %4, align 8
  ret ptr %5
}

; Function Attrs: mustprogress nounwind uwtable
define linkonce_odr hidden noundef ptr @_ZN4llvm12DenseMapInfoIPKN5clang14DirectoryEntryEvE11getEmptyKeyEv() #1 comdat align 2 {
  %1 = alloca i64, align 8
  store i64 -1, ptr %1, align 8
  %2 = load i64, ptr %1, align 8
  %3 = shl i64 %2, 12
  store i64 %3, ptr %1, align 8
  %4 = load i64, ptr %1, align 8
  %5 = inttoptr i64 %4 to ptr
  ret ptr %5
}

; Function Attrs: mustprogress nounwind uwtable
define linkonce_odr hidden void @_ZN4llvm8DenseMapIPKN5clang14DirectoryEntryENS_12PointerUnionIJNS1_17DirectoryEntryRefEPNS1_9api_notes14APINotesReaderEEEENS_12DenseMapInfoIS4_vEENS_6detail12DenseMapPairIS4_SA_EEE16setNumTombstonesEj(ptr noundef nonnull align 8 dereferenceable(20) %0, i32 noundef %1) #1 comdat align 2 {
  %3 = alloca ptr, align 8
  %4 = alloca i32, align 4
  store ptr %0, ptr %3, align 8
  store i32 %1, ptr %4, align 4
  %5 = load ptr, ptr %3, align 8
  %6 = load i32, ptr %4, align 4
  %7 = getelementptr inbounds nuw %"class.llvm::DenseMap", ptr %5, i32 0, i32 2
  store i32 %6, ptr %7, align 4
  ret void
}

; Function Attrs: mustprogress nounwind uwtable
define linkonce_odr hidden void @_ZN4llvm8DenseMapIPKN5clang14DirectoryEntryENS_12PointerUnionIJNS1_17DirectoryEntryRefEPNS1_9api_notes14APINotesReaderEEEENS_12DenseMapInfoIS4_vEENS_6detail12DenseMapPairIS4_SA_EEE13setNumEntriesEj(ptr noundef nonnull align 8 dereferenceable(20) %0, i32 noundef %1) #1 comdat align 2 {
  %3 = alloca ptr, align 8
  %4 = alloca i32, align 4
  store ptr %0, ptr %3, align 8
  store i32 %1, ptr %4, align 4
  %5 = load ptr, ptr %3, align 8
  %6 = load i32, ptr %4, align 4
  %7 = getelementptr inbounds nuw %"class.llvm::DenseMap", ptr %5, i32 0, i32 1
  store i32 %6, ptr %7, align 8
  ret void
}

; Function Attrs: mustprogress nounwind uwtable
define linkonce_odr hidden noundef nonnull align 8 dereferenceable(8) ptr @_ZN4llvm6detail12DenseMapPairIPKN5clang14DirectoryEntryENS_12PointerUnionIJNS2_17DirectoryEntryRefEPNS2_9api_notes14APINotesReaderEEEEE8getFirstEv(ptr noundef nonnull align 8 dereferenceable(16) %0) #1 comdat align 2 {
  %2 = alloca ptr, align 8
  store ptr %0, ptr %2, align 8
  %3 = load ptr, ptr %2, align 8
  %4 = getelementptr inbounds nuw %"struct.std::pair", ptr %3, i32 0, i32 0
  ret ptr %4
}

; Function Attrs: mustprogress nounwind uwtable
define linkonce_odr hidden noundef ptr @_ZN4llvm12DenseMapBaseINS_8DenseMapIPKN5clang14DirectoryEntryENS_12PointerUnionIJNS2_17DirectoryEntryRefEPNS2_9api_notes14APINotesReaderEEEENS_12DenseMapInfoIS5_vEENS_6detail12DenseMapPairIS5_SB_EEEES5_SB_SD_SG_E13getBucketsEndEv(ptr noundef nonnull align 1 dereferenceable(1) %0) #1 comdat align 2 {
  %2 = alloca ptr, align 8
  store ptr %0, ptr %2, align 8
  %3 = load ptr, ptr %2, align 8
  %4 = call noundef ptr @_ZN4llvm12DenseMapBaseINS_8DenseMapIPKN5clang14DirectoryEntryENS_12PointerUnionIJNS2_17DirectoryEntryRefEPNS2_9api_notes14APINotesReaderEEEENS_12DenseMapInfoIS5_vEENS_6detail12DenseMapPairIS5_SB_EEEES5_SB_SD_SG_E10getBucketsEv(ptr noundef nonnull align 1 dereferenceable(1) %3)
  %5 = call noundef i32 @_ZNK4llvm12DenseMapBaseINS_8DenseMapIPKN5clang14DirectoryEntryENS_12PointerUnionIJNS2_17DirectoryEntryRefEPNS2_9api_notes14APINotesReaderEEEENS_12DenseMapInfoIS5_vEENS_6detail12DenseMapPairIS5_SB_EEEES5_SB_SD_SG_E13getNumBucketsEv(ptr noundef nonnull align 1 dereferenceable(1) %3)
  %6 = zext i32 %5 to i64
  %7 = getelementptr inbounds %"struct.llvm::detail::DenseMapPair", ptr %4, i64 %6
  ret ptr %7
}

; Function Attrs: mustprogress nounwind uwtable
define linkonce_odr hidden noundef ptr @_ZN4llvm12DenseMapBaseINS_8DenseMapIPKN5clang14DirectoryEntryENS_12PointerUnionIJNS2_17DirectoryEntryRefEPNS2_9api_notes14APINotesReaderEEEENS_12DenseMapInfoIS5_vEENS_6detail12DenseMapPairIS5_SB_EEEES5_SB_SD_SG_E10getBucketsEv(ptr noundef nonnull align 1 dereferenceable(1) %0) #1 comdat align 2 {
  %2 = alloca ptr, align 8
  store ptr %0, ptr %2, align 8
  %3 = load ptr, ptr %2, align 8
  %4 = call noundef ptr @_ZNK4llvm8DenseMapIPKN5clang14DirectoryEntryENS_12PointerUnionIJNS1_17DirectoryEntryRefEPNS1_9api_notes14APINotesReaderEEEENS_12DenseMapInfoIS4_vEENS_6detail12DenseMapPairIS4_SA_EEE10getBucketsEv(ptr noundef nonnull align 8 dereferenceable(20) %3)
  ret ptr %4
}

; Function Attrs: mustprogress nounwind uwtable
define linkonce_odr hidden noundef ptr @_ZN4llvm12DenseMapBaseINS_8DenseMapIPKN5clang14DirectoryEntryENS_12PointerUnionIJNS2_17DirectoryEntryRefEPNS2_9api_notes14APINotesReaderEEEENS_12DenseMapInfoIS5_vEENS_6detail12DenseMapPairIS5_SB_EEEES5_SB_SD_SG_E11getEmptyKeyEv() #1 comdat align 2 {
  %1 = call noundef ptr @_ZN4llvm12DenseMapInfoIPKN5clang14DirectoryEntryEvE11getEmptyKeyEv()
  ret ptr %1
}

; Function Attrs: mustprogress nounwind uwtable
define linkonce_odr hidden void @_ZN4llvm12DenseMapBaseINS_8DenseMapIPKN5clang14DirectoryEntryENS_12PointerUnionIJNS2_17DirectoryEntryRefEPNS2_9api_notes14APINotesReaderEEEENS_12DenseMapInfoIS5_vEENS_6detail12DenseMapPairIS5_SB_EEEES5_SB_SD_SG_E16setNumTombstonesEj(ptr noundef nonnull align 1 dereferenceable(1) %0, i32 noundef %1) #1 comdat align 2 {
  %3 = alloca ptr, align 8
  %4 = alloca i32, align 4
  store ptr %0, ptr %3, align 8
  store i32 %1, ptr %4, align 4
  %5 = load ptr, ptr %3, align 8
  %6 = load i32, ptr %4, align 4
  call void @_ZN4llvm8DenseMapIPKN5clang14DirectoryEntryENS_12PointerUnionIJNS1_17DirectoryEntryRefEPNS1_9api_notes14APINotesReaderEEEENS_12DenseMapInfoIS4_vEENS_6detail12DenseMapPairIS4_SA_EEE16setNumTombstonesEj(ptr noundef nonnull align 8 dereferenceable(20) %5, i32 noundef %6)
  ret void
}

; Function Attrs: mustprogress nounwind uwtable
define linkonce_odr hidden void @_ZN4llvm12DenseMapBaseINS_8DenseMapIPKN5clang14DirectoryEntryENS_12PointerUnionIJNS2_17DirectoryEntryRefEPNS2_9api_notes14APINotesReaderEEEENS_12DenseMapInfoIS5_vEENS_6detail12DenseMapPairIS5_SB_EEEES5_SB_SD_SG_E13setNumEntriesEj(ptr noundef nonnull align 1 dereferenceable(1) %0, i32 noundef %1) #1 comdat align 2 {
  %3 = alloca ptr, align 8
  %4 = alloca i32, align 4
  store ptr %0, ptr %3, align 8
  store i32 %1, ptr %4, align 4
  %5 = load ptr, ptr %3, align 8
  %6 = load i32, ptr %4, align 4
  call void @_ZN4llvm8DenseMapIPKN5clang14DirectoryEntryENS_12PointerUnionIJNS1_17DirectoryEntryRefEPNS1_9api_notes14APINotesReaderEEEENS_12DenseMapInfoIS4_vEENS_6detail12DenseMapPairIS4_SA_EEE13setNumEntriesEj(ptr noundef nonnull align 8 dereferenceable(20) %5, i32 noundef %6)
  ret void
}

; Function Attrs: mustprogress nounwind uwtable
define linkonce_odr hidden noundef i64 @_ZN4llvm12NextPowerOf2Em(i64 noundef %0) #1 comdat {
  %2 = alloca i64, align 8
  store i64 %0, ptr %2, align 8
  %3 = load i64, ptr %2, align 8
  %4 = lshr i64 %3, 1
  %5 = load i64, ptr %2, align 8
  %6 = or i64 %5, %4
  store i64 %6, ptr %2, align 8
  %7 = load i64, ptr %2, align 8
  %8 = lshr i64 %7, 2
  %9 = load i64, ptr %2, align 8
  %10 = or i64 %9, %8
  store i64 %10, ptr %2, align 8
  %11 = load i64, ptr %2, align 8
  %12 = lshr i64 %11, 4
  %13 = load i64, ptr %2, align 8
  %14 = or i64 %13, %12
  store i64 %14, ptr %2, align 8
  %15 = load i64, ptr %2, align 8
  %16 = lshr i64 %15, 8
  %17 = load i64, ptr %2, align 8
  %18 = or i64 %17, %16
  store i64 %18, ptr %2, align 8
  %19 = load i64, ptr %2, align 8
  %20 = lshr i64 %19, 16
  %21 = load i64, ptr %2, align 8
  %22 = or i64 %21, %20
  store i64 %22, ptr %2, align 8
  %23 = load i64, ptr %2, align 8
  %24 = lshr i64 %23, 32
  %25 = load i64, ptr %2, align 8
  %26 = or i64 %25, %24
  store i64 %26, ptr %2, align 8
  %27 = load i64, ptr %2, align 8
  %28 = add i64 %27, 1
  ret i64 %28
}

; Function Attrs: mustprogress nounwind uwtable
define linkonce_odr hidden void @_ZN4llvm12DenseMapBaseINS_8DenseMapIPKN5clang14DirectoryEntryENS_12PointerUnionIJNS2_17DirectoryEntryRefEPNS2_9api_notes14APINotesReaderEEEENS_12DenseMapInfoIS5_vEENS_6detail12DenseMapPairIS5_SB_EEEES5_SB_SD_SG_E9initEmptyEv(ptr noundef nonnull align 1 dereferenceable(1) %0) #1 comdat align 2 {
  %2 = alloca ptr, align 8
  %3 = alloca ptr, align 8
  %4 = alloca ptr, align 8
  %5 = alloca ptr, align 8
  store ptr %0, ptr %2, align 8
  %6 = load ptr, ptr %2, align 8
  call void @_ZN4llvm12DenseMapBaseINS_8DenseMapIPKN5clang14DirectoryEntryENS_12PointerUnionIJNS2_17DirectoryEntryRefEPNS2_9api_notes14APINotesReaderEEEENS_12DenseMapInfoIS5_vEENS_6detail12DenseMapPairIS5_SB_EEEES5_SB_SD_SG_E13setNumEntriesEj(ptr noundef nonnull align 1 dereferenceable(1) %6, i32 noundef 0)
  call void @_ZN4llvm12DenseMapBaseINS_8DenseMapIPKN5clang14DirectoryEntryENS_12PointerUnionIJNS2_17DirectoryEntryRefEPNS2_9api_notes14APINotesReaderEEEENS_12DenseMapInfoIS5_vEENS_6detail12DenseMapPairIS5_SB_EEEES5_SB_SD_SG_E16setNumTombstonesEj(ptr noundef nonnull align 1 dereferenceable(1) %6, i32 noundef 0)
  %7 = call noundef ptr @_ZN4llvm12DenseMapBaseINS_8DenseMapIPKN5clang14DirectoryEntryENS_12PointerUnionIJNS2_17DirectoryEntryRefEPNS2_9api_notes14APINotesReaderEEEENS_12DenseMapInfoIS5_vEENS_6detail12DenseMapPairIS5_SB_EEEES5_SB_SD_SG_E11getEmptyKeyEv()
  store ptr %7, ptr %3, align 8
  %8 = call noundef ptr @_ZN4llvm12DenseMapBaseINS_8DenseMapIPKN5clang14DirectoryEntryENS_12PointerUnionIJNS2_17DirectoryEntryRefEPNS2_9api_notes14APINotesReaderEEEENS_12DenseMapInfoIS5_vEENS_6detail12DenseMapPairIS5_SB_EEEES5_SB_SD_SG_E10getBucketsEv(ptr noundef nonnull align 1 dereferenceable(1) %6)
  store ptr %8, ptr %4, align 8
  %9 = call noundef ptr @_ZN4llvm12DenseMapBaseINS_8DenseMapIPKN5clang14DirectoryEntryENS_12PointerUnionIJNS2_17DirectoryEntryRefEPNS2_9api_notes14APINotesReaderEEEENS_12DenseMapInfoIS5_vEENS_6detail12DenseMapPairIS5_SB_EEEES5_SB_SD_SG_E13getBucketsEndEv(ptr noundef nonnull align 1 dereferenceable(1) %6)
  store ptr %9, ptr %5, align 8
  br label %10

10:                                               ; preds = %18, %1
  %11 = load ptr, ptr %4, align 8
  %12 = load ptr, ptr %5, align 8
  %13 = icmp ne ptr %11, %12
  br i1 %13, label %14, label %21

14:                                               ; preds = %10
  %15 = load ptr, ptr %4, align 8
  %16 = call noundef nonnull align 8 dereferenceable(8) ptr @_ZN4llvm6detail12DenseMapPairIPKN5clang14DirectoryEntryENS_12PointerUnionIJNS2_17DirectoryEntryRefEPNS2_9api_notes14APINotesReaderEEEEE8getFirstEv(ptr noundef nonnull align 8 dereferenceable(16) %15)
  %17 = load ptr, ptr %3, align 8
  store ptr %17, ptr %16, align 8
  br label %18

18:                                               ; preds = %14
  %19 = load ptr, ptr %4, align 8
  %20 = getelementptr inbounds %"struct.llvm::detail::DenseMapPair", ptr %19, i32 1
  store ptr %20, ptr %4, align 8
  br label %10, !llvm.loop !14

21:                                               ; preds = %10
  ret void
}

; Function Attrs: mustprogress nounwind uwtable
define linkonce_odr hidden noundef zeroext i1 @_ZN4llvm8DenseMapIPKN5clang14DirectoryEntryENS_12PointerUnionIJNS1_17DirectoryEntryRefEPNS1_9api_notes14APINotesReaderEEEENS_12DenseMapInfoIS4_vEENS_6detail12DenseMapPairIS4_SA_EEE15allocateBucketsEj(ptr noundef nonnull align 8 dereferenceable(20) %0, i32 noundef %1) #1 comdat align 2 {
  %3 = alloca i1, align 1
  %4 = alloca ptr, align 8
  %5 = alloca i32, align 4
  store ptr %0, ptr %4, align 8
  store i32 %1, ptr %5, align 4
  %6 = load ptr, ptr %4, align 8
  %7 = load i32, ptr %5, align 4
  %8 = getelementptr inbounds nuw %"class.llvm::DenseMap", ptr %6, i32 0, i32 3
  store i32 %7, ptr %8, align 8
  %9 = getelementptr inbounds nuw %"class.llvm::DenseMap", ptr %6, i32 0, i32 3
  %10 = load i32, ptr %9, align 8
  %11 = icmp eq i32 %10, 0
  br i1 %11, label %12, label %14

12:                                               ; preds = %2
  %13 = getelementptr inbounds nuw %"class.llvm::DenseMap", ptr %6, i32 0, i32 0
  store ptr null, ptr %13, align 8
  store i1 false, ptr %3, align 1
  br label %21

14:                                               ; preds = %2
  %15 = getelementptr inbounds nuw %"class.llvm::DenseMap", ptr %6, i32 0, i32 3
  %16 = load i32, ptr %15, align 8
  %17 = zext i32 %16 to i64
  %18 = mul i64 16, %17
  %19 = call noalias noundef nonnull ptr @_ZN4llvm15allocate_bufferEmm(i64 noundef %18, i64 noundef 8)
  %20 = getelementptr inbounds nuw %"class.llvm::DenseMap", ptr %6, i32 0, i32 0
  store ptr %19, ptr %20, align 8
  store i1 true, ptr %3, align 1
  br label %21

21:                                               ; preds = %14, %12
  %22 = load i1, ptr %3, align 1
  ret i1 %22
}

; Function Attrs: mustprogress nounwind uwtable
define linkonce_odr hidden noundef i32 @_ZN4llvm12DenseMapBaseINS_8DenseMapIPKN5clang14DirectoryEntryENS_12PointerUnionIJNS2_17DirectoryEntryRefEPNS2_9api_notes14APINotesReaderEEEENS_12DenseMapInfoIS5_vEENS_6detail12DenseMapPairIS5_SB_EEEES5_SB_SD_SG_E31getMinBucketToReserveForEntriesEj(ptr noundef nonnull align 1 dereferenceable(1) %0, i32 noundef %1) #1 comdat align 2 {
  %3 = alloca i32, align 4
  %4 = alloca ptr, align 8
  %5 = alloca i32, align 4
  store ptr %0, ptr %4, align 8
  store i32 %1, ptr %5, align 4
  %6 = load i32, ptr %5, align 4
  %7 = icmp eq i32 %6, 0
  br i1 %7, label %8, label %9

8:                                                ; preds = %2
  store i32 0, ptr %3, align 4
  br label %17

9:                                                ; preds = %2
  %10 = load i32, ptr %5, align 4
  %11 = mul i32 %10, 4
  %12 = udiv i32 %11, 3
  %13 = add i32 %12, 1
  %14 = zext i32 %13 to i64
  %15 = call noundef i64 @_ZN4llvm12NextPowerOf2Em(i64 noundef %14)
  %16 = trunc i64 %15 to i32
  store i32 %16, ptr %3, align 4
  br label %17

17:                                               ; preds = %9, %8
  %18 = load i32, ptr %3, align 4
  ret i32 %18
}

; Function Attrs: mustprogress nounwind uwtable
define linkonce_odr hidden void @_ZN4llvm8DenseMapIPKN5clang14DirectoryEntryENS_12PointerUnionIJNS1_17DirectoryEntryRefEPNS1_9api_notes14APINotesReaderEEEENS_12DenseMapInfoIS4_vEENS_6detail12DenseMapPairIS4_SA_EEE4initEj(ptr noundef nonnull align 8 dereferenceable(20) %0, i32 noundef %1) #1 comdat align 2 {
  %3 = alloca ptr, align 8
  %4 = alloca i32, align 4
  %5 = alloca i32, align 4
  store ptr %0, ptr %3, align 8
  store i32 %1, ptr %4, align 4
  %6 = load ptr, ptr %3, align 8
  %7 = load i32, ptr %4, align 4
  %8 = call noundef i32 @_ZN4llvm12DenseMapBaseINS_8DenseMapIPKN5clang14DirectoryEntryENS_12PointerUnionIJNS2_17DirectoryEntryRefEPNS2_9api_notes14APINotesReaderEEEENS_12DenseMapInfoIS5_vEENS_6detail12DenseMapPairIS5_SB_EEEES5_SB_SD_SG_E31getMinBucketToReserveForEntriesEj(ptr noundef nonnull align 1 dereferenceable(1) %6, i32 noundef %7)
  store i32 %8, ptr %5, align 4
  %9 = load i32, ptr %5, align 4
  %10 = call noundef zeroext i1 @_ZN4llvm8DenseMapIPKN5clang14DirectoryEntryENS_12PointerUnionIJNS1_17DirectoryEntryRefEPNS1_9api_notes14APINotesReaderEEEENS_12DenseMapInfoIS4_vEENS_6detail12DenseMapPairIS4_SA_EEE15allocateBucketsEj(ptr noundef nonnull align 8 dereferenceable(20) %6, i32 noundef %9)
  br i1 %10, label %11, label %12

11:                                               ; preds = %2
  call void @_ZN4llvm12DenseMapBaseINS_8DenseMapIPKN5clang14DirectoryEntryENS_12PointerUnionIJNS2_17DirectoryEntryRefEPNS2_9api_notes14APINotesReaderEEEENS_12DenseMapInfoIS5_vEENS_6detail12DenseMapPairIS5_SB_EEEES5_SB_SD_SG_E9initEmptyEv(ptr noundef nonnull align 1 dereferenceable(1) %6)
  br label %15

12:                                               ; preds = %2
  %13 = getelementptr inbounds nuw %"class.llvm::DenseMap", ptr %6, i32 0, i32 1
  store i32 0, ptr %13, align 8
  %14 = getelementptr inbounds nuw %"class.llvm::DenseMap", ptr %6, i32 0, i32 2
  store i32 0, ptr %14, align 4
  br label %15

15:                                               ; preds = %12, %11
  ret void
}

; Function Attrs: mustprogress nounwind uwtable
define linkonce_odr hidden void @_ZN4llvm8DenseMapIPKN5clang14DirectoryEntryENS_12PointerUnionIJNS1_17DirectoryEntryRefEPNS1_9api_notes14APINotesReaderEEEENS_12DenseMapInfoIS4_vEENS_6detail12DenseMapPairIS4_SA_EEEC2Ej(ptr noundef nonnull align 8 dereferenceable(20) %0, i32 noundef %1) unnamed_addr #1 comdat align 2 {
  %3 = alloca ptr, align 8
  %4 = alloca i32, align 4
  store ptr %0, ptr %3, align 8
  store i32 %1, ptr %4, align 4
  %5 = load ptr, ptr %3, align 8
  %6 = load i32, ptr %4, align 4
  call void @_ZN4llvm8DenseMapIPKN5clang14DirectoryEntryENS_12PointerUnionIJNS1_17DirectoryEntryRefEPNS1_9api_notes14APINotesReaderEEEENS_12DenseMapInfoIS4_vEENS_6detail12DenseMapPairIS4_SA_EEE4initEj(ptr noundef nonnull align 8 dereferenceable(20) %5, i32 noundef %6)
  ret void
}

; Function Attrs: mustprogress nounwind uwtable
define linkonce_odr hidden void @_ZN4llvm12VersionTupleC2Ev(ptr noundef nonnull align 4 dereferenceable(16) %0) unnamed_addr #1 comdat align 2 {
  %2 = alloca ptr, align 8
  store ptr %0, ptr %2, align 8
  %3 = load ptr, ptr %2, align 8
  %4 = load i64, ptr %3, align 4
  %5 = and i64 %4, -4294967296
  %6 = or i64 %5, 0
  store i64 %6, ptr %3, align 4
  %7 = load i64, ptr %3, align 4
  %8 = and i64 %7, -9223372032559808513
  %9 = or i64 %8, 0
  store i64 %9, ptr %3, align 4
  %10 = load i64, ptr %3, align 4
  %11 = and i64 %10, 9223372036854775807
  %12 = or i64 %11, 0
  store i64 %12, ptr %3, align 4
  %13 = getelementptr inbounds nuw %"class.llvm::VersionTuple", ptr %3, i32 0, i32 1
  %14 = load i64, ptr %13, align 4
  %15 = and i64 %14, -2147483648
  %16 = or i64 %15, 0
  store i64 %16, ptr %13, align 4
  %17 = getelementptr inbounds nuw %"class.llvm::VersionTuple", ptr %3, i32 0, i32 1
  %18 = load i64, ptr %17, align 4
  %19 = and i64 %18, -2147483649
  %20 = or i64 %19, 0
  store i64 %20, ptr %17, align 4
  %21 = getelementptr inbounds nuw %"class.llvm::VersionTuple", ptr %3, i32 0, i32 1
  %22 = load i64, ptr %21, align 4
  %23 = and i64 %22, -9223372032559808513
  %24 = or i64 %23, 0
  store i64 %24, ptr %21, align 4
  %25 = getelementptr inbounds nuw %"class.llvm::VersionTuple", ptr %3, i32 0, i32 1
  %26 = load i64, ptr %25, align 4
  %27 = and i64 %26, 9223372036854775807
  %28 = or i64 %27, 0
  store i64 %28, ptr %25, align 4
  ret void
}

; Function Attrs: mustprogress nounwind uwtable
define dso_local void @_ZN5clang9api_notes15APINotesManagerC2ERNS_13SourceManagerERKNS_11LangOptionsE(ptr noundef nonnull align 8 dereferenceable(72) %0, ptr noundef nonnull align 8 dereferenceable(696) %1, ptr noundef nonnull align 8 dereferenceable(841) %2) unnamed_addr #1 align 2 {
  %4 = alloca ptr, align 8
  %5 = alloca ptr, align 8
  %6 = alloca ptr, align 8
  store ptr %0, ptr %4, align 8
  store ptr %1, ptr %5, align 8
  store ptr %2, ptr %6, align 8
  %7 = load ptr, ptr %4, align 8
  %8 = getelementptr inbounds nuw %"class.clang::api_notes::APINotesManager", ptr %7, i32 0, i32 0
  %9 = load ptr, ptr %5, align 8
  store ptr %9, ptr %8, align 8
  %10 = getelementptr inbounds nuw %"class.clang::api_notes::APINotesManager", ptr %7, i32 0, i32 1
  %11 = load ptr, ptr %6, align 8
  %12 = getelementptr inbounds nuw %"class.clang::LangOptionsBase", ptr %11, i32 0, i32 19
  %13 = load i64, ptr %12, align 8
  %14 = lshr i64 %13, 3
  %15 = and i64 %14, 1
  %16 = trunc i64 %15 to i32
  %17 = icmp ne i32 %16, 0
  %18 = zext i1 %17 to i8
  store i8 %18, ptr %10, align 8
  %19 = getelementptr inbounds nuw %"class.clang::api_notes::APINotesManager", ptr %7, i32 0, i32 3
  call void @_ZN4llvm12VersionTupleC2Ev(ptr noundef nonnull align 4 dereferenceable(16) %19)
  %20 = getelementptr inbounds nuw %"class.clang::api_notes::APINotesManager", ptr %7, i32 0, i32 5
  store ptr null, ptr %20, align 8
  %21 = getelementptr inbounds ptr, ptr %20, i64 1
  store ptr null, ptr %21, align 8
  %22 = getelementptr inbounds nuw %"class.clang::api_notes::APINotesManager", ptr %7, i32 0, i32 6
  call void @_ZN4llvm8DenseMapIPKN5clang14DirectoryEntryENS_12PointerUnionIJNS1_17DirectoryEntryRefEPNS1_9api_notes14APINotesReaderEEEENS_12DenseMapInfoIS4_vEENS_6detail12DenseMapPairIS4_SA_EEEC2Ej(ptr noundef nonnull align 8 dereferenceable(20) %22, i32 noundef 0)
  ret void
}