; Function Attrs: mustprogress nofree norecurse nosync nounwind willreturn memory(argmem: readwrite) uwtable
define dso_local void @_ZN5clang9api_notes15APINotesManagerC2ERNS_13SourceManagerERKNS_11LangOptionsE(ptr noundef nonnull writeonly align 8 captures(none) dereferenceable(72) initializes((0, 9), (12, 28), (32, 68)) %0, ptr noundef nonnull align 8 dereferenceable(696) %1, ptr noundef nonnull readonly align 8 captures(none) dereferenceable(841) %2) unnamed_addr #0 align 2 {
  store ptr %1, ptr %0, align 8
  %4 = getelementptr inbounds nuw i8, ptr %0, i64 8
  %5 = getelementptr inbounds nuw i8, ptr %2, i64 152
  %6 = load i64, ptr %5, align 8
  %7 = trunc i64 %6 to i8
  %8 = lshr i8 %7, 3
  %9 = and i8 %8, 1
  store i8 %9, ptr %4, align 8
  %10 = getelementptr inbounds nuw i8, ptr %0, i64 12
  tail call void @llvm.memset.p0.i64(ptr noundef nonnull align 4 dereferenceable(16) %10, i8 0, i64 16, i1 false)
  %11 = getelementptr inbounds nuw i8, ptr %0, i64 32
  tail call void @llvm.memset.p0.i64(ptr noundef nonnull align 8 dereferenceable(36) %11, i8 0, i64 36, i1 false)
  ret void
}